; Function Attrs: mustprogress nofree norecurse nosync nounwind willreturn memory(write, argmem: readwrite, inaccessiblemem: none) uwtable
define range(i32 -3, -1) i32 @MOZ_Z_inflateUndermine(ptr noundef readonly captures(address_is_null) %0, i32 noundef %1) local_unnamed_addr #7 {
  %3 = icmp eq ptr %0, null
  br i1 %3, label %10, label %4

4:                                                ; preds = %2
  %5 = getelementptr inbounds nuw i8, ptr %0, i64 56
  %6 = load ptr, ptr %5, align 8, !tbaa !3
  %7 = icmp eq ptr %6, null
  br i1 %7, label %10, label %8

8:                                                ; preds = %4
  %9 = getelementptr inbounds nuw i8, ptr %6, i64 7136
  store i32 1, ptr %9, align 8, !tbaa !28
  br label %10

10:                                               ; preds = %2, %4, %8
  %.0 = phi i32 [ -3, %8 ], [ -2, %4 ], [ -2, %2 ]
  ret i32 %.0
}